; Function Attrs: mustprogress nofree norecurse nounwind willreturn memory(read, argmem: readwrite, inaccessiblemem: none) uwtable
define hidden void @je_arena_extent_dalloc_large_prep(ptr noundef readnone captures(none) %0, ptr noundef captures(none) %1, ptr noundef readonly captures(none) %2) local_unnamed_addr #4 {
  %.val = load i64, ptr %2, align 8, !tbaa !145
  %4 = lshr i64 %.val, 20
  %5 = and i64 %4, 255
  %6 = getelementptr inbounds nuw [235 x i64], ptr @je_sz_index2size_tab, i64 0, i64 %5
  %7 = load i64, ptr %6, align 8, !tbaa !11
  %8 = icmp ugt i64 %7, 8070450532247928832
  br i1 %8, label %arena_large_dalloc_stats_update.exit, label %9, !prof !142

9:                                                ; preds = %3
  %spec.store.select.i = tail call i64 @llvm.umax.i64(i64 %7, i64 16384)
  %10 = shl nuw i64 %spec.store.select.i, 1
  %11 = add i64 %10, -1
  %12 = tail call range(i64 0, 65) i64 @llvm.ctlz.i64(i64 range(i64 0, -2305843009213693952) %11, i1 true)
  %13 = trunc nuw nsw i64 %12 to i32
  %14 = sub nuw nsw i64 60, %12
  %15 = shl nsw i64 -1, %14
  %16 = add nsw i64 %spec.store.select.i, -1
  %17 = and i64 %15, %16
  %18 = lshr i64 %17, %14
  %19 = trunc i64 %18 to i32
  %20 = and i32 %19, 3
  %21 = shl nuw nsw i32 %13, 2
  %reass.sub = sub nsw i32 %20, %21
  %22 = add nsw i32 %reass.sub, 232
  br label %arena_large_dalloc_stats_update.exit

arena_large_dalloc_stats_update.exit:             ; preds = %3, %9
  %.0.i.i = phi i32 [ %22, %9 ], [ 235, %3 ]
  %23 = tail call i32 @llvm.usub.sat.i32(i32 %.0.i.i, i32 39)
  %24 = zext nneg i32 %23 to i64
  %.idx.i = mul nuw nsw i64 %24, 48
  %25 = getelementptr i8, ptr %1, i64 984
  %26 = getelementptr i8, ptr %25, i64 %.idx.i
  %27 = atomicrmw add ptr %26, i64 1 monotonic, align 8
  ret void
}